; Function Attrs: mustprogress uwtable
define void @_ZNK4cvc56parser23DeclareOracleFunCommand8toStreamERSo(ptr noundef nonnull align 8 dereferenceable(128) %0, ptr noundef nonnull align 8 dereferenceable(8) %1) unnamed_addr #3 align 2 personality ptr @__gxx_personality_v0 {
  %3 = alloca %"class.std::vector.253", align 8
  %4 = alloca %"class.cvc5::internal::TypeNode", align 8
  %5 = tail call noundef ptr @_ZN4cvc58internal7Printer10getPrinterERSo(ptr noundef nonnull align 8 dereferenceable(8) %1)
  call void @llvm.lifetime.start.p0(i64 24, ptr nonnull %3) #33
  %6 = getelementptr inbounds nuw i8, ptr %0, i64 48
  call void @_ZN4cvc54Sort21sortVectorToTypeNodesERKSt6vectorIS0_SaIS0_EE(ptr dead_on_unwind nonnull writable sret(%"class.std::vector.253") align 8 %3, ptr noundef nonnull align 8 dereferenceable(24) %6)
  %7 = getelementptr inbounds nuw i8, ptr %0, i64 72
  call void @llvm.experimental.noalias.scope.decl(metadata !241)
  %8 = invoke noundef nonnull align 8 dereferenceable(8) ptr @_ZNK4cvc54Sort11getTypeNodeEv(ptr noundef nonnull align 8 dereferenceable(24) %7)
          to label %.noexc unwind label %67

.noexc:                                           ; preds = %2
  %9 = load ptr, ptr %8, align 8, !tbaa !68, !noalias !241
  store ptr %9, ptr %4, align 8, !tbaa !68, !alias.scope !241
  %10 = load i64, ptr %9, align 8, !noalias !241
  %11 = lshr i64 %10, 40
  %12 = trunc nuw nsw i64 %11 to i32
  %13 = and i32 %12, 1048575
  %14 = icmp samesign ult i32 %13, 1048574
  br i1 %14, label %15, label %20, !prof !67

15:                                               ; preds = %.noexc
  %16 = add i64 %10, 1099511627776
  %17 = and i64 %16, 1152920405095219200
  %18 = and i64 %10, -1152920405095219201
  %19 = or disjoint i64 %17, %18
  store i64 %19, ptr %9, align 8, !noalias !241
  br label %_ZN4cvc56parser3Cmd14sortToTypeNodeERKNS_4SortE.exit

20:                                               ; preds = %.noexc
  %21 = icmp eq i32 %13, 1048574
  br i1 %21, label %22, label %_ZN4cvc56parser3Cmd14sortToTypeNodeERKNS_4SortE.exit, !prof !32

22:                                               ; preds = %20
  %23 = or i64 %10, 1152920405095219200
  store i64 %23, ptr %9, align 8, !noalias !241
  invoke void @_ZN4cvc58internal4expr9NodeValue20markRefCountMaxedOutEv(ptr noundef nonnull align 8 dereferenceable(24) %9)
          to label %_ZN4cvc56parser3Cmd14sortToTypeNodeERKNS_4SortE.exit unwind label %67

_ZN4cvc56parser3Cmd14sortToTypeNodeERKNS_4SortE.exit: ; preds = %20, %15, %22
  %24 = getelementptr inbounds nuw i8, ptr %0, i64 16
  %25 = getelementptr inbounds nuw i8, ptr %0, i64 96
  %26 = load ptr, ptr %5, align 8, !tbaa !6
  %27 = getelementptr inbounds nuw i8, ptr %26, i64 168
  %28 = load ptr, ptr %27, align 8
  invoke void %28(ptr noundef nonnull align 8 dereferenceable(8) %5, ptr noundef nonnull align 8 dereferenceable(8) %1, ptr noundef nonnull align 8 dereferenceable(32) %24, ptr noundef nonnull align 8 dereferenceable(24) %3, ptr noundef nonnull %4, ptr noundef nonnull align 8 dereferenceable(32) %25)
          to label %29 unwind label %69

29:                                               ; preds = %_ZN4cvc56parser3Cmd14sortToTypeNodeERKNS_4SortE.exit
  %30 = load ptr, ptr %4, align 8, !tbaa !68
  %31 = load i64, ptr %30, align 8
  %32 = and i64 %31, 1152920405095219200
  %.not.i.i = icmp eq i64 %32, 1152920405095219200
  br i1 %.not.i.i, label %_ZN4cvc58internal8TypeNodeD2Ev.exit, label %33, !prof !32

33:                                               ; preds = %29
  %34 = add i64 %31, 1152920405095219200
  %35 = and i64 %34, 1152920405095219200
  %36 = and i64 %31, -1152920405095219201
  %37 = or disjoint i64 %35, %36
  store i64 %37, ptr %30, align 8
  %38 = icmp eq i64 %35, 0
  br i1 %38, label %39, label %_ZN4cvc58internal8TypeNodeD2Ev.exit, !prof !32

39:                                               ; preds = %33
  invoke void @_ZN4cvc58internal4expr9NodeValue15markForDeletionEv(ptr noundef nonnull align 8 dereferenceable(24) %30)
          to label %_ZN4cvc58internal8TypeNodeD2Ev.exit unwind label %40

40:                                               ; preds = %39
  %41 = landingpad { ptr, i32 }
          catch ptr null
  %42 = extractvalue { ptr, i32 } %41, 0
  call void @__clang_call_terminate(ptr %42) #35
  unreachable

_ZN4cvc58internal8TypeNodeD2Ev.exit:              ; preds = %29, %33, %39
  %43 = load ptr, ptr %3, align 8, !tbaa !232
  %44 = getelementptr inbounds nuw i8, ptr %3, i64 8
  %45 = load ptr, ptr %44, align 8, !tbaa !234
  %.not4.i.i.i.i = icmp eq ptr %43, %45
  br i1 %.not4.i.i.i.i, label %_ZSt8_DestroyIPN4cvc58internal8TypeNodeES2_EvT_S4_RSaIT0_E.exit.i, label %.lr.ph.i.i.i.i

.lr.ph.i.i.i.i:                                   ; preds = %_ZN4cvc58internal8TypeNodeD2Ev.exit, %_ZSt8_DestroyIN4cvc58internal8TypeNodeEEvPT_.exit.i.i.i.i
  %.05.i.i.i.i = phi ptr [ %59, %_ZSt8_DestroyIN4cvc58internal8TypeNodeEEvPT_.exit.i.i.i.i ], [ %43, %_ZN4cvc58internal8TypeNodeD2Ev.exit ]
  %46 = load ptr, ptr %.05.i.i.i.i, align 8, !tbaa !68
  %47 = load i64, ptr %46, align 8
  %48 = and i64 %47, 1152920405095219200
  %.not.i.i.i.i.i.i.i = icmp eq i64 %48, 1152920405095219200
  br i1 %.not.i.i.i.i.i.i.i, label %_ZSt8_DestroyIN4cvc58internal8TypeNodeEEvPT_.exit.i.i.i.i, label %49, !prof !32

49:                                               ; preds = %.lr.ph.i.i.i.i
  %50 = add i64 %47, 1152920405095219200
  %51 = and i64 %50, 1152920405095219200
  %52 = and i64 %47, -1152920405095219201
  %53 = or disjoint i64 %51, %52
  store i64 %53, ptr %46, align 8
  %54 = icmp eq i64 %51, 0
  br i1 %54, label %55, label %_ZSt8_DestroyIN4cvc58internal8TypeNodeEEvPT_.exit.i.i.i.i, !prof !32

55:                                               ; preds = %49
  invoke void @_ZN4cvc58internal4expr9NodeValue15markForDeletionEv(ptr noundef nonnull align 8 dereferenceable(24) %46)
          to label %_ZSt8_DestroyIN4cvc58internal8TypeNodeEEvPT_.exit.i.i.i.i unwind label %56

56:                                               ; preds = %55
  %57 = landingpad { ptr, i32 }
          catch ptr null
  %58 = extractvalue { ptr, i32 } %57, 0
  call void @__clang_call_terminate(ptr %58) #35
  unreachable

_ZSt8_DestroyIN4cvc58internal8TypeNodeEEvPT_.exit.i.i.i.i: ; preds = %55, %49, %.lr.ph.i.i.i.i
  %59 = getelementptr inbounds nuw i8, ptr %.05.i.i.i.i, i64 8
  %.not.i.i.i.i = icmp eq ptr %59, %45
  br i1 %.not.i.i.i.i, label %_ZSt8_DestroyIPN4cvc58internal8TypeNodeES2_EvT_S4_RSaIT0_E.exitthread-pre-split.i, label %.lr.ph.i.i.i.i, !llvm.loop !235

_ZSt8_DestroyIPN4cvc58internal8TypeNodeES2_EvT_S4_RSaIT0_E.exitthread-pre-split.i: ; preds = %_ZSt8_DestroyIN4cvc58internal8TypeNodeEEvPT_.exit.i.i.i.i
  %.pr.i = load ptr, ptr %3, align 8, !tbaa !232
  br label %_ZSt8_DestroyIPN4cvc58internal8TypeNodeES2_EvT_S4_RSaIT0_E.exit.i

_ZSt8_DestroyIPN4cvc58internal8TypeNodeES2_EvT_S4_RSaIT0_E.exit.i: ; preds = %_ZSt8_DestroyIPN4cvc58internal8TypeNodeES2_EvT_S4_RSaIT0_E.exitthread-pre-split.i, %_ZN4cvc58internal8TypeNodeD2Ev.exit
  %60 = phi ptr [ %.pr.i, %_ZSt8_DestroyIPN4cvc58internal8TypeNodeES2_EvT_S4_RSaIT0_E.exitthread-pre-split.i ], [ %43, %_ZN4cvc58internal8TypeNodeD2Ev.exit ]
  %.not.i.i.i = icmp eq ptr %60, null
  br i1 %.not.i.i.i, label %_ZNSt6vectorIN4cvc58internal8TypeNodeESaIS2_EED2Ev.exit, label %61

61:                                               ; preds = %_ZSt8_DestroyIPN4cvc58internal8TypeNodeES2_EvT_S4_RSaIT0_E.exit.i
  %62 = getelementptr inbounds nuw i8, ptr %3, i64 16
  %63 = load ptr, ptr %62, align 8, !tbaa !236
  %64 = ptrtoint ptr %63 to i64
  %65 = ptrtoint ptr %60 to i64
  %66 = sub i64 %64, %65
  call void @_ZdlPvm(ptr noundef nonnull %60, i64 noundef %66) #34
  br label %_ZNSt6vectorIN4cvc58internal8TypeNodeESaIS2_EED2Ev.exit

_ZNSt6vectorIN4cvc58internal8TypeNodeESaIS2_EED2Ev.exit: ; preds = %_ZSt8_DestroyIPN4cvc58internal8TypeNodeES2_EvT_S4_RSaIT0_E.exit.i, %61
  call void @llvm.lifetime.end.p0(i64 24, ptr nonnull %3) #33
  ret void

67:                                               ; preds = %22, %2
  %68 = landingpad { ptr, i32 }
          cleanup
  br label %71

69:                                               ; preds = %_ZN4cvc56parser3Cmd14sortToTypeNodeERKNS_4SortE.exit
  %70 = landingpad { ptr, i32 }
          cleanup
  call void @_ZN4cvc58internal8TypeNodeD2Ev(ptr noundef nonnull align 8 dereferenceable(8) %4) #33
  br label %71

71:                                               ; preds = %69, %67
  %.pn = phi { ptr, i32 } [ %70, %69 ], [ %68, %67 ]
  call void @_ZNSt6vectorIN4cvc58internal8TypeNodeESaIS2_EED2Ev(ptr noundef nonnull align 8 dereferenceable(24) %3) #33
  call void @llvm.lifetime.end.p0(i64 24, ptr nonnull %3) #33
  resume { ptr, i32 } %.pn
}